target datalayout = "e-m:e-p270:32:32-p271:32:32-p272:64:64-i64:64-i128:128-f80:128-n8:16:32:64-S128"
target triple = "x86_64-pc-linux-gnu"

%struct.lua_State = type { %struct.GCRef, i8, i8, i8, i8, %struct.MRef, %struct.GCRef, ptr, ptr, %struct.MRef, %struct.MRef, %struct.GCRef, %struct.GCRef, ptr, i32 }
%struct.MRef = type { i64 }
%struct.GCRef = type { i64 }
%union.TValue = type { i64 }
%struct.GCtab = type { %struct.GCRef, i8, i8, i8, i8, %struct.MRef, %struct.GCRef, %struct.GCRef, %struct.MRef, i32, i32, %struct.MRef }
%struct.Node = type { %union.TValue, %union.TValue, %struct.MRef }
%struct.SBuf = type { ptr, ptr, ptr, %struct.MRef }
%struct.global_State = type { ptr, ptr, %struct.GCState, %struct.GCstr, i8, i8, i8, i8, %struct.StrInternState, i32, %struct.GCRef, %struct.SBuf, %union.TValue, %union.TValue, %struct.Node, %union.TValue, %struct.GCupval, i32, i32, ptr, ptr, ptr, i32, i32, %struct.GCRef, %struct.MRef, %struct.MRef, %struct.PRNGState, [39 x %struct.GCRef] }
%struct.GCState = type { i64, i64, i8, i8, i8, i8, i32, %struct.GCRef, %struct.MRef, %struct.GCRef, %struct.GCRef, %struct.GCRef, %struct.GCRef, i64, i64, i32, i32, %struct.MRef }
%struct.GCstr = type { %struct.GCRef, i8, i8, i8, i8, i32, i32, i32 }
%struct.StrInternState = type { ptr, i32, i32, i32, i8, i8, i8, i8, i64 }
%struct.GCupval = type { %struct.GCRef, i8, i8, i8, i8, %union.anon, %struct.MRef, i32 }
%union.anon = type { %struct.anon.1 }
%struct.anon.1 = type { %struct.GCRef, %struct.GCRef }
%struct.PRNGState = type { [4 x i64] }

@lj_obj_itypename = external hidden constant [14 x ptr], align 16
@.str.4 = private unnamed_addr constant [24 x i8] c"store to dead GC object\00", align 1

; Function Attrs: alwaysinline nounwind uwtable
define internal void @checklivetv(ptr noundef %0, ptr noundef %1, ptr noundef %2) #3 {
  %4 = alloca ptr, align 8
  %5 = alloca ptr, align 8
  %6 = alloca ptr, align 8
  store ptr %0, ptr %4, align 8, !tbaa !4
  store ptr %1, ptr %5, align 8, !tbaa !21
  store ptr %2, ptr %6, align 8, !tbaa !44
  ret void
}

; Function Attrs: alwaysinline nounwind uwtable
define internal void @setgcVraw(ptr noundef %0, ptr noundef %1, i32 noundef %2) #3 {
  %4 = alloca ptr, align 8
  %5 = alloca ptr, align 8
  %6 = alloca i32, align 4
  store ptr %0, ptr %4, align 8, !tbaa !21
  store ptr %1, ptr %5, align 8, !tbaa !58
  store i32 %2, ptr %6, align 4, !tbaa !33
  %7 = load ptr, ptr %5, align 8, !tbaa !58
  %8 = ptrtoint ptr %7 to i64
  %9 = load i32, ptr %6, align 4, !tbaa !33
  %10 = zext i32 %9 to i64
  %11 = shl i64 %10, 47
  %12 = or i64 %8, %11
  %13 = load ptr, ptr %4, align 8, !tbaa !21
  %14 = getelementptr inbounds nuw %struct.GCRef, ptr %13, i32 0, i32 0
  store i64 %12, ptr %14, align 8, !tbaa !16
  ret void
}

; Function Attrs: alwaysinline nounwind uwtable
define internal void @setgcV(ptr noundef %0, ptr noundef %1, ptr noundef %2, i32 noundef %3) #3 {
  %5 = alloca ptr, align 8
  %6 = alloca ptr, align 8
  %7 = alloca ptr, align 8
  %8 = alloca i32, align 4
  store ptr %0, ptr %5, align 8, !tbaa !4
  store ptr %1, ptr %6, align 8, !tbaa !21
  store ptr %2, ptr %7, align 8, !tbaa !58
  store i32 %3, ptr %8, align 4, !tbaa !33
  %9 = load ptr, ptr %6, align 8, !tbaa !21
  %10 = load ptr, ptr %7, align 8, !tbaa !58
  %11 = load i32, ptr %8, align 4, !tbaa !33
  call void @setgcVraw(ptr noundef %9, ptr noundef %10, i32 noundef %11)
  %12 = load ptr, ptr %5, align 8, !tbaa !4
  %13 = load ptr, ptr %6, align 8, !tbaa !21
  call void @checklivetv(ptr noundef %12, ptr noundef %13, ptr noundef @.str.4)
  ret void
}

; Function Attrs: alwaysinline nounwind uwtable
define internal void @lj_buf_reset(ptr noundef %0) #3 {
  %2 = alloca ptr, align 8
  store ptr %0, ptr %2, align 8, !tbaa !39
  %3 = load ptr, ptr %2, align 8, !tbaa !39
  %4 = getelementptr inbounds nuw %struct.SBuf, ptr %3, i32 0, i32 2
  %5 = load ptr, ptr %4, align 8, !tbaa !63
  %6 = load ptr, ptr %2, align 8, !tbaa !39
  %7 = getelementptr inbounds nuw %struct.SBuf, ptr %6, i32 0, i32 0
  store ptr %5, ptr %7, align 8, !tbaa !41
  ret void
}

; Function Attrs: alwaysinline nounwind uwtable
define internal void @setstrV(ptr noundef %0, ptr noundef %1, ptr noundef %2) #3 {
  %4 = alloca ptr, align 8
  %5 = alloca ptr, align 8
  %6 = alloca ptr, align 8
  store ptr %0, ptr %4, align 8, !tbaa !4
  store ptr %1, ptr %5, align 8, !tbaa !21
  store ptr %2, ptr %6, align 8, !tbaa !37
  %7 = load ptr, ptr %4, align 8, !tbaa !4
  %8 = load ptr, ptr %5, align 8, !tbaa !21
  %9 = load ptr, ptr %6, align 8, !tbaa !37
  call void @setgcV(ptr noundef %7, ptr noundef %8, ptr noundef %9, i32 noundef -5)
  ret void
}

; Function Attrs: alwaysinline nounwind uwtable
define internal ptr @lj_buf_str(ptr noundef %0, ptr noundef %1) #3 {
  %3 = alloca ptr, align 8
  %4 = alloca ptr, align 8
  store ptr %0, ptr %3, align 8, !tbaa !4
  store ptr %1, ptr %4, align 8, !tbaa !39
  %5 = load ptr, ptr %3, align 8, !tbaa !4
  %6 = load ptr, ptr %4, align 8, !tbaa !39
  %7 = getelementptr inbounds nuw %struct.SBuf, ptr %6, i32 0, i32 2
  %8 = load ptr, ptr %7, align 8, !tbaa !63
  %9 = load ptr, ptr %4, align 8, !tbaa !39
  %10 = getelementptr inbounds nuw %struct.SBuf, ptr %9, i32 0, i32 0
  %11 = load ptr, ptr %10, align 8, !tbaa !41
  %12 = load ptr, ptr %4, align 8, !tbaa !39
  %13 = getelementptr inbounds nuw %struct.SBuf, ptr %12, i32 0, i32 2
  %14 = load ptr, ptr %13, align 8, !tbaa !63
  %15 = ptrtoint ptr %11 to i64
  %16 = ptrtoint ptr %14 to i64
  %17 = sub i64 %15, %16
  %18 = trunc i64 %17 to i32
  %19 = zext i32 %18 to i64
  %20 = call ptr @lj_str_new(ptr noundef %5, ptr noundef %8, i64 noundef %19)
  ret ptr %20
}

; Function Attrs: alwaysinline nounwind uwtable
define internal ptr @lj_buf_tmp_(ptr noundef %0) #3 {
  %2 = alloca ptr, align 8
  %3 = alloca ptr, align 8
  store ptr %0, ptr %2, align 8, !tbaa !4
  call void @llvm.lifetime.start.p0(i64 8, ptr %3) #7
  %4 = load ptr, ptr %2, align 8, !tbaa !4
  %5 = getelementptr inbounds nuw %struct.lua_State, ptr %4, i32 0, i32 5
  %6 = getelementptr inbounds nuw %struct.MRef, ptr %5, i32 0, i32 0
  %7 = load i64, ptr %6, align 8, !tbaa !36
  %8 = inttoptr i64 %7 to ptr
  %9 = getelementptr inbounds nuw %struct.global_State, ptr %8, i32 0, i32 11
  store ptr %9, ptr %3, align 8, !tbaa !39
  %10 = load ptr, ptr %2, align 8, !tbaa !4
  %11 = ptrtoint ptr %10 to i64
  %12 = load ptr, ptr %3, align 8, !tbaa !39
  %13 = getelementptr inbounds nuw %struct.SBuf, ptr %12, i32 0, i32 3
  %14 = getelementptr inbounds nuw %struct.MRef, ptr %13, i32 0, i32 0
  store i64 %11, ptr %14, align 8, !tbaa !62
  %15 = load ptr, ptr %3, align 8, !tbaa !39
  call void @lj_buf_reset(ptr noundef %15)
  %16 = load ptr, ptr %3, align 8, !tbaa !39
  call void @llvm.lifetime.end.p0(i64 8, ptr %3) #7
  ret ptr %16
}

; Function Attrs: nounwind uwtable
define internal i32 @lj_cf_table_concat(ptr noundef %0) #0 {
  %2 = alloca ptr, align 8
  %3 = alloca ptr, align 8
  %4 = alloca ptr, align 8
  %5 = alloca i32, align 4
  %6 = alloca i32, align 4
  %7 = alloca ptr, align 8
  %8 = alloca ptr, align 8
  %9 = alloca i32, align 4
  %10 = alloca ptr, align 8
  store ptr %0, ptr %2, align 8, !tbaa !4
  call void @llvm.lifetime.start.p0(i64 8, ptr %3) #7
  %11 = load ptr, ptr %2, align 8, !tbaa !4
  %12 = call ptr @lj_lib_checktab(ptr noundef %11, i32 noundef 1)
  store ptr %12, ptr %3, align 8, !tbaa !17
  call void @llvm.lifetime.start.p0(i64 8, ptr %4) #7
  %13 = load ptr, ptr %2, align 8, !tbaa !4
  %14 = call ptr @lj_lib_optstr(ptr noundef %13, i32 noundef 2)
  store ptr %14, ptr %4, align 8, !tbaa !37
  call void @llvm.lifetime.start.p0(i64 4, ptr %5) #7
  %15 = load ptr, ptr %2, align 8, !tbaa !4
  %16 = call i32 @lj_lib_optint(ptr noundef %15, i32 noundef 3, i32 noundef 1)
  store i32 %16, ptr %5, align 4, !tbaa !33
  call void @llvm.lifetime.start.p0(i64 4, ptr %6) #7
  %17 = load ptr, ptr %2, align 8, !tbaa !4
  %18 = getelementptr inbounds nuw %struct.lua_State, ptr %17, i32 0, i32 7
  %19 = load ptr, ptr %18, align 8, !tbaa !34
  %20 = getelementptr inbounds %union.TValue, ptr %19, i64 3
  %21 = load ptr, ptr %2, align 8, !tbaa !4
  %22 = getelementptr inbounds nuw %struct.lua_State, ptr %21, i32 0, i32 8
  %23 = load ptr, ptr %22, align 8, !tbaa !9
  %24 = icmp ult ptr %20, %23
  br i1 %24, label %25, label %35

25:                                               ; preds = %1
  %26 = load ptr, ptr %2, align 8, !tbaa !4
  %27 = getelementptr inbounds nuw %struct.lua_State, ptr %26, i32 0, i32 7
  %28 = load ptr, ptr %27, align 8, !tbaa !34
  %29 = getelementptr inbounds %union.TValue, ptr %28, i64 3
  %30 = load i64, ptr %29, align 8, !tbaa !16
  %31 = icmp eq i64 %30, -1
  br i1 %31, label %35, label %32

32:                                               ; preds = %25
  %33 = load ptr, ptr %2, align 8, !tbaa !4
  %34 = call i32 @lj_lib_checkint(ptr noundef %33, i32 noundef 4)
  br label %38

35:                                               ; preds = %25, %1
  %36 = load ptr, ptr %3, align 8, !tbaa !17
  %37 = call i32 @lj_tab_len(ptr noundef %36)
  br label %38

38:                                               ; preds = %35, %32
  %39 = phi i32 [ %34, %32 ], [ %37, %35 ]
  store i32 %39, ptr %6, align 4, !tbaa !33
  call void @llvm.lifetime.start.p0(i64 8, ptr %7) #7
  %40 = load ptr, ptr %2, align 8, !tbaa !4
  %41 = call ptr @lj_buf_tmp_(ptr noundef %40)
  store ptr %41, ptr %7, align 8, !tbaa !39
  call void @llvm.lifetime.start.p0(i64 8, ptr %8) #7
  %42 = load ptr, ptr %7, align 8, !tbaa !39
  %43 = load ptr, ptr %3, align 8, !tbaa !17
  %44 = load ptr, ptr %4, align 8, !tbaa !37
  %45 = load i32, ptr %5, align 4, !tbaa !33
  %46 = load i32, ptr %6, align 4, !tbaa !33
  %47 = call ptr @lj_buf_puttab(ptr noundef %42, ptr noundef %43, ptr noundef %44, i32 noundef %45, i32 noundef %46)
  store ptr %47, ptr %8, align 8, !tbaa !39
  %48 = load ptr, ptr %8, align 8, !tbaa !39
  %49 = icmp ne ptr %48, null
  %50 = xor i1 %49, true
  %51 = xor i1 %50, true
  %52 = xor i1 %51, true
  %53 = zext i1 %52 to i32
  %54 = sext i32 %53 to i64
  %55 = call i64 @llvm.expect.i64(i64 %54, i64 0)
  %56 = icmp ne i64 %55, 0
  br i1 %56, label %57, label %108

57:                                               ; preds = %38
  call void @llvm.lifetime.start.p0(i64 4, ptr %9) #7
  %58 = load ptr, ptr %7, align 8, !tbaa !39
  %59 = getelementptr inbounds nuw %struct.SBuf, ptr %58, i32 0, i32 0
  %60 = load ptr, ptr %59, align 8, !tbaa !41
  %61 = ptrtoint ptr %60 to i64
  %62 = trunc i64 %61 to i32
  store i32 %62, ptr %9, align 4, !tbaa !33
  call void @llvm.lifetime.start.p0(i64 8, ptr %10) #7
  %63 = load i32, ptr %9, align 4, !tbaa !33
  %64 = load ptr, ptr %3, align 8, !tbaa !17
  %65 = getelementptr inbounds nuw %struct.GCtab, ptr %64, i32 0, i32 9
  %66 = load i32, ptr %65, align 8, !tbaa !24
  %67 = icmp ult i32 %63, %66
  br i1 %67, label %68, label %77

68:                                               ; preds = %57
  %69 = load ptr, ptr %3, align 8, !tbaa !17
  %70 = getelementptr inbounds nuw %struct.GCtab, ptr %69, i32 0, i32 5
  %71 = getelementptr inbounds nuw %struct.MRef, ptr %70, i32 0, i32 0
  %72 = load i64, ptr %71, align 8, !tbaa !19
  %73 = inttoptr i64 %72 to ptr
  %74 = load i32, ptr %9, align 4, !tbaa !33
  %75 = sext i32 %74 to i64
  %76 = getelementptr inbounds %union.TValue, ptr %73, i64 %75
  br label %81

77:                                               ; preds = %57
  %78 = load ptr, ptr %3, align 8, !tbaa !17
  %79 = load i32, ptr %9, align 4, !tbaa !33
  %80 = call ptr @lj_tab_getinth(ptr noundef %78, i32 noundef %79)
  br label %81

81:                                               ; preds = %77, %68
  %82 = phi ptr [ %76, %68 ], [ %80, %77 ]
  store ptr %82, ptr %10, align 8, !tbaa !21
  %83 = load ptr, ptr %2, align 8, !tbaa !4
  %84 = load ptr, ptr %10, align 8, !tbaa !21
  %85 = icmp ne ptr %84, null
  br i1 %85, label %86, label %101

86:                                               ; preds = %81
  %87 = load ptr, ptr %10, align 8, !tbaa !21
  %88 = load i64, ptr %87, align 8, !tbaa !16
  %89 = ashr i64 %88, 47
  %90 = trunc i64 %89 to i32
  %91 = icmp ule i32 %90, -14
  br i1 %91, label %92, label %93

92:                                               ; preds = %86
  br label %99

93:                                               ; preds = %86
  %94 = load ptr, ptr %10, align 8, !tbaa !21
  %95 = load i64, ptr %94, align 8, !tbaa !16
  %96 = ashr i64 %95, 47
  %97 = trunc i64 %96 to i32
  %98 = xor i32 %97, -1
  br label %99

99:                                               ; preds = %93, %92
  %100 = phi i32 [ 13, %92 ], [ %98, %93 ]
  br label %102

101:                                              ; preds = %81
  br label %102

102:                                              ; preds = %101, %99
  %103 = phi i32 [ %100, %99 ], [ 0, %101 ]
  %104 = zext i32 %103 to i64
  %105 = getelementptr inbounds nuw [14 x ptr], ptr @lj_obj_itypename, i64 0, i64 %104
  %106 = load ptr, ptr %105, align 8, !tbaa !44
  %107 = load i32, ptr %9, align 4, !tbaa !33
  call void (ptr, i32, ...) @lj_err_callerv(ptr noundef %83, i32 noundef 1443, ptr noundef %106, i32 noundef %107) #8
  unreachable

108:                                              ; preds = %38
  %109 = load ptr, ptr %2, align 8, !tbaa !4
  %110 = load ptr, ptr %2, align 8, !tbaa !4
  %111 = getelementptr inbounds nuw %struct.lua_State, ptr %110, i32 0, i32 8
  %112 = load ptr, ptr %111, align 8, !tbaa !9
  %113 = getelementptr inbounds %union.TValue, ptr %112, i64 -1
  %114 = load ptr, ptr %2, align 8, !tbaa !4
  %115 = load ptr, ptr %8, align 8, !tbaa !39
  %116 = call ptr @lj_buf_str(ptr noundef %114, ptr noundef %115)
  call void @setstrV(ptr noundef %109, ptr noundef %113, ptr noundef %116)
  %117 = load ptr, ptr %2, align 8, !tbaa !4
  %118 = getelementptr inbounds nuw %struct.lua_State, ptr %117, i32 0, i32 5
  %119 = getelementptr inbounds nuw %struct.MRef, ptr %118, i32 0, i32 0
  %120 = load i64, ptr %119, align 8, !tbaa !36
  %121 = inttoptr i64 %120 to ptr
  %122 = getelementptr inbounds nuw %struct.global_State, ptr %121, i32 0, i32 2
  %123 = getelementptr inbounds nuw %struct.GCState, ptr %122, i32 0, i32 0
  %124 = load i64, ptr %123, align 8, !tbaa !45
  %125 = load ptr, ptr %2, align 8, !tbaa !4
  %126 = getelementptr inbounds nuw %struct.lua_State, ptr %125, i32 0, i32 5
  %127 = getelementptr inbounds nuw %struct.MRef, ptr %126, i32 0, i32 0
  %128 = load i64, ptr %127, align 8, !tbaa !36
  %129 = inttoptr i64 %128 to ptr
  %130 = getelementptr inbounds nuw %struct.global_State, ptr %129, i32 0, i32 2
  %131 = getelementptr inbounds nuw %struct.GCState, ptr %130, i32 0, i32 1
  %132 = load i64, ptr %131, align 8, !tbaa !54
  %133 = icmp uge i64 %124, %132
  %134 = xor i1 %133, true
  %135 = xor i1 %134, true
  %136 = zext i1 %135 to i32
  %137 = sext i32 %136 to i64
  %138 = call i64 @llvm.expect.i64(i64 %137, i64 0)
  %139 = icmp ne i64 %138, 0
  br i1 %139, label %140, label %143

140:                                              ; preds = %108
  %141 = load ptr, ptr %2, align 8, !tbaa !4
  %142 = call i32 @lj_gc_step(ptr noundef %141)
  br label %143

143:                                              ; preds = %140, %108
  call void @llvm.lifetime.end.p0(i64 8, ptr %8) #7
  call void @llvm.lifetime.end.p0(i64 8, ptr %7) #7
  call void @llvm.lifetime.end.p0(i64 4, ptr %6) #7
  call void @llvm.lifetime.end.p0(i64 4, ptr %5) #7
  call void @llvm.lifetime.end.p0(i64 8, ptr %4) #7
  call void @llvm.lifetime.end.p0(i64 8, ptr %3) #7
  ret i32 1
}