; Function Attrs: nounwind uwtable
define internal noundef i32 @lj_cf_table_concat(ptr noundef %0) #0 {
  %2 = tail call ptr @lj_lib_checktab(ptr noundef %0, i32 noundef 1) #4
  %3 = tail call ptr @lj_lib_optstr(ptr noundef %0, i32 noundef 2) #4
  %4 = tail call i32 @lj_lib_optint(ptr noundef %0, i32 noundef 3, i32 noundef 1) #4
  %5 = getelementptr inbounds nuw i8, ptr %0, i64 32
  %6 = load ptr, ptr %5, align 8, !tbaa !23
  %7 = getelementptr inbounds nuw i8, ptr %6, i64 24
  %8 = getelementptr inbounds nuw i8, ptr %0, i64 40
  %9 = load ptr, ptr %8, align 8, !tbaa !4
  %10 = icmp ult ptr %7, %9
  br i1 %10, label %11, label %16

11:                                               ; preds = %1
  %12 = load i64, ptr %7, align 8, !tbaa !14
  %13 = icmp eq i64 %12, -1
  br i1 %13, label %16, label %14

14:                                               ; preds = %11
  %15 = tail call i32 @lj_lib_checkint(ptr noundef nonnull %0, i32 noundef 4) #4
  br label %18

16:                                               ; preds = %11, %1
  %17 = tail call i32 @lj_tab_len(ptr noundef %2) #4
  br label %18

18:                                               ; preds = %16, %14
  %19 = phi i32 [ %15, %14 ], [ %17, %16 ]
  %20 = getelementptr inbounds nuw i8, ptr %0, i64 16
  %21 = load i64, ptr %20, align 8, !tbaa !25
  %22 = inttoptr i64 %21 to ptr
  %23 = getelementptr inbounds nuw i8, ptr %22, i64 200
  %24 = ptrtoint ptr %0 to i64
  %25 = getelementptr inbounds nuw i8, ptr %22, i64 224
  store i64 %24, ptr %25, align 8, !tbaa !38
  %26 = getelementptr inbounds nuw i8, ptr %22, i64 216
  %27 = load ptr, ptr %26, align 8, !tbaa !39
  store ptr %27, ptr %23, align 8, !tbaa !40
  %28 = tail call ptr @lj_buf_puttab(ptr noundef nonnull %23, ptr noundef %2, ptr noundef %3, i32 noundef %4, i32 noundef %19) #4
  %.not = icmp eq ptr %28, null
  br i1 %.not, label %29, label %54, !prof !41

29:                                               ; preds = %18
  %30 = load ptr, ptr %23, align 8, !tbaa !40
  %31 = ptrtoint ptr %30 to i64
  %32 = trunc i64 %31 to i32
  %33 = getelementptr inbounds nuw i8, ptr %2, i64 48
  %34 = load i32, ptr %33, align 8, !tbaa !17
  %35 = icmp ugt i32 %34, %32
  br i1 %35, label %36, label %42

36:                                               ; preds = %29
  %37 = getelementptr inbounds nuw i8, ptr %2, i64 16
  %38 = load i64, ptr %37, align 8, !tbaa !15
  %39 = inttoptr i64 %38 to ptr
  %sext = shl i64 %31, 32
  %40 = ashr exact i64 %sext, 29
  %41 = getelementptr inbounds i8, ptr %39, i64 %40
  br label %44

42:                                               ; preds = %29
  %43 = tail call ptr @lj_tab_getinth(ptr noundef nonnull %2, i32 noundef %32) #4
  br label %44

44:                                               ; preds = %42, %36
  %45 = phi ptr [ %41, %36 ], [ %43, %42 ]
  %.not37 = icmp eq ptr %45, null
  br i1 %.not37, label %50, label %46

46:                                               ; preds = %44
  %47 = load i64, ptr %45, align 8, !tbaa !14
  %48 = ashr i64 %47, 47
  %49 = tail call i64 @llvm.umax.i64(i64 %48, i64 -14)
  %spec.select = xor i64 %49, -1
  br label %50

50:                                               ; preds = %46, %44
  %51 = phi i64 [ 0, %44 ], [ %spec.select, %46 ]
  %52 = getelementptr inbounds nuw [14 x ptr], ptr @lj_obj_itypename, i64 0, i64 %51
  %53 = load ptr, ptr %52, align 8, !tbaa !42
  tail call void (ptr, i32, ...) @lj_err_callerv(ptr noundef nonnull %0, i32 noundef 1443, ptr noundef %53, i32 noundef %32) #5
  unreachable

54:                                               ; preds = %18
  %55 = load ptr, ptr %8, align 8, !tbaa !4
  %56 = getelementptr inbounds i8, ptr %55, i64 -8
  %57 = getelementptr inbounds nuw i8, ptr %28, i64 16
  %58 = load ptr, ptr %57, align 8, !tbaa !39
  %59 = load ptr, ptr %28, align 8, !tbaa !40
  %60 = ptrtoint ptr %59 to i64
  %61 = ptrtoint ptr %58 to i64
  %62 = sub i64 %60, %61
  %63 = and i64 %62, 4294967295
  %64 = tail call ptr @lj_str_new(ptr noundef nonnull %0, ptr noundef %58, i64 noundef %63) #4
  %65 = ptrtoint ptr %64 to i64
  %66 = or i64 %65, -703687441776640
  store i64 %66, ptr %56, align 8, !tbaa !14
  %67 = load i64, ptr %20, align 8, !tbaa !25
  %68 = inttoptr i64 %67 to ptr
  %69 = getelementptr inbounds nuw i8, ptr %68, i64 16
  %70 = load i64, ptr %69, align 8, !tbaa !43
  %71 = getelementptr inbounds nuw i8, ptr %68, i64 24
  %72 = load i64, ptr %71, align 8, !tbaa !44
  %.not36 = icmp ult i64 %70, %72
  br i1 %.not36, label %75, label %73, !prof !45

73:                                               ; preds = %54
  %74 = tail call i32 @lj_gc_step(ptr noundef nonnull %0) #4
  br label %75

75:                                               ; preds = %73, %54
  ret i32 1
}